target datalayout = "e-m:e-p270:32:32-p271:32:32-p272:64:64-i64:64-i128:128-f80:128-n8:16:32:64-S128"
target triple = "x86_64-pc-linux-gnu"

%struct.HasScavengableOops = type <{ %class.OopClosure, ptr, i8, [7 x i8] }>
%class.OopClosure = type { ptr }

@_ZN19ScavengableNMethods15_is_scavengableE = hidden global ptr null, align 8
@_ZTV10OopClosure = linkonce_odr hidden unnamed_addr constant { [4 x ptr] } { [4 x ptr] [ptr null, ptr null, ptr @__cxa_pure_virtual, ptr @__cxa_pure_virtual] }, comdat, align 8

; Function Attrs: mustprogress nounwind uwtable
define linkonce_odr hidden void @_ZN10OopClosureC2Ev(ptr noundef nonnull align 8 dereferenceable(8) %0) unnamed_addr #1 comdat align 2 {
  %2 = alloca ptr, align 8
  store ptr %0, ptr %2, align 8
  %3 = load ptr, ptr %2, align 8
  store ptr getelementptr inbounds inrange(-16, 16) ({ [4 x ptr] }, ptr @_ZTV10OopClosure, i32 0, i32 0, i32 2), ptr %3, align 8
  ret void
}

; Function Attrs: mustprogress nounwind uwtable
define linkonce_odr hidden void @_ZN7nmethod7oops_doEP10OopClosure(ptr noundef nonnull align 8 dereferenceable(214) %0, ptr noundef %1) #1 comdat align 2 {
  %3 = alloca ptr, align 8
  %4 = alloca ptr, align 8
  store ptr %0, ptr %3, align 8
  store ptr %1, ptr %4, align 8
  %5 = load ptr, ptr %3, align 8
  %6 = load ptr, ptr %4, align 8
  call void @_ZN7nmethod7oops_doEP10OopClosureb(ptr noundef nonnull align 8 dereferenceable(214) %5, ptr noundef %6, i1 noundef zeroext false)
  ret void
}

; Function Attrs: mustprogress nounwind uwtable
define internal void @_ZZN19ScavengableNMethods20has_scavengable_oopsEP7nmethodEN18HasScavengableOopsC2EP17BoolObjectClosure(ptr noundef nonnull align 8 dereferenceable(17) %0, ptr noundef %1) unnamed_addr #1 align 2 {
  %3 = alloca ptr, align 8
  %4 = alloca ptr, align 8
  store ptr %0, ptr %3, align 8
  store ptr %1, ptr %4, align 8
  %5 = load ptr, ptr %3, align 8
  call void @_ZN10OopClosureC2Ev(ptr noundef nonnull align 8 dereferenceable(8) %5) #5
  store ptr getelementptr inbounds inrange(-16, 16) ({ [4 x ptr] }, ptr @_ZTVZN19ScavengableNMethods20has_scavengable_oopsEP7nmethodE18HasScavengableOops, i32 0, i32 0, i32 2), ptr %5, align 8
  %6 = getelementptr inbounds %struct.HasScavengableOops, ptr %5, i32 0, i32 1
  %7 = load ptr, ptr %4, align 8
  store ptr %7, ptr %6, align 8
  %8 = getelementptr inbounds %struct.HasScavengableOops, ptr %5, i32 0, i32 2
  store i8 0, ptr %8, align 8
  ret void
}

; Function Attrs: mustprogress nounwind uwtable
define hidden noundef zeroext i1 @_ZN19ScavengableNMethods20has_scavengable_oopsEP7nmethod(ptr noundef %0) #1 align 2 {
  %2 = alloca ptr, align 8
  %3 = alloca %struct.HasScavengableOops, align 8
  store ptr %0, ptr %2, align 8
  %4 = load ptr, ptr @_ZN19ScavengableNMethods15_is_scavengableE, align 8
  call void @_ZZN19ScavengableNMethods20has_scavengable_oopsEP7nmethodEN18HasScavengableOopsC2EP17BoolObjectClosure(ptr noundef nonnull align 8 dereferenceable(17) %3, ptr noundef %4)
  %5 = load ptr, ptr %2, align 8
  call void @_ZN7nmethod7oops_doEP10OopClosure(ptr noundef nonnull align 8 dereferenceable(214) %5, ptr noundef %3)
  %6 = getelementptr inbounds %struct.HasScavengableOops, ptr %3, i32 0, i32 2
  %7 = load i8, ptr %6, align 8
  %8 = trunc i8 %7 to i1
  ret i1 %8
}