; Function Attrs: mustprogress nounwind uwtable
define hidden noundef zeroext i1 @_ZN19ScavengableNMethods20has_scavengable_oopsEP7nmethod(ptr noundef nonnull %0) local_unnamed_addr #1 align 2 {
  %2 = alloca %struct.HasScavengableOops, align 8
  %3 = load ptr, ptr @_ZN19ScavengableNMethods15_is_scavengableE, align 8
  store ptr getelementptr inbounds inrange(-16, 16) (i8, ptr @_ZTVZN19ScavengableNMethods20has_scavengable_oopsEP7nmethodE18HasScavengableOops, i64 16), ptr %2, align 8
  %4 = getelementptr inbounds i8, ptr %2, i64 8
  store ptr %3, ptr %4, align 8
  %5 = getelementptr inbounds i8, ptr %2, i64 16
  store i8 0, ptr %5, align 8
  call void @_ZN7nmethod7oops_doEP10OopClosureb(ptr noundef nonnull align 8 dereferenceable(214) %0, ptr noundef nonnull %2, i1 noundef zeroext false) #9
  %6 = load i8, ptr %5, align 8
  %7 = trunc i8 %6 to i1
  ret i1 %7
}